target datalayout = "e-m:e-p270:32:32-p271:32:32-p272:64:64-i64:64-i128:128-f80:128-n8:16:32:64-S128"
target triple = "x86_64-pc-linux-gnu"

%struct.mbedtls_ssl_context = type { ptr, i32, i32, i32, i32, i32, ptr, ptr, ptr, ptr, ptr, ptr, ptr, ptr, ptr, ptr, ptr, ptr, ptr, ptr, ptr, ptr, ptr, ptr, ptr, ptr, ptr, ptr, ptr, ptr, ptr, ptr, ptr, i32, i64, i64, i16, i64, i64, i64, i64, i32, i32, i8, i8, i32, i8, ptr, ptr, ptr, ptr, ptr, ptr, ptr, i32, i64, i64, [8 x i8], i16, ptr, ptr, ptr, i64, i32, i64, [12 x i8], [12 x i8], [32 x i8], i8, i8, ptr, ptr, %union.mbedtls_ssl_user_data_t }
%union.mbedtls_ssl_user_data_t = type { i64 }
%struct.mbedtls_ssl_config = type { i32, i32, i8, i8, i8, i8, i8, i8, i8, i8, i8, i8, i16, i8, i8, i8, ptr, i32, ptr, ptr, ptr, ptr, ptr, ptr, ptr, ptr, ptr, ptr, ptr, ptr, ptr, ptr, ptr, ptr, ptr, ptr, ptr, i64, ptr, ptr, ptr, ptr, ptr, ptr, ptr, ptr, %struct.mbedtls_mpi, %struct.mbedtls_mpi, ptr, i64, ptr, i64, ptr, i32, i32, i32, i32, [8 x i8], i32, i32, %union.mbedtls_ssl_user_data_t, ptr, ptr }
%struct.mbedtls_mpi = type { ptr, i16, i16 }

@.str = private unnamed_addr constant [121 x i8] c"generated/home/dtcxzyw/WorkSpace/Projects/compilers/llvm-opt-benchmark/bench/lief/bench_build/mbed_src/library/ssl_msg.c\00", align 1
@.str.127 = private unnamed_addr constant [51 x i8] c"ssl_check_pending: record held back for processing\00", align 1
@.str.128 = private unnamed_addr constant [56 x i8] c"ssl_check_pending: more records within current datagram\00", align 1
@.str.129 = private unnamed_addr constant [65 x i8] c"ssl_check_pending: more handshake messages within current record\00", align 1
@.str.130 = private unnamed_addr constant [62 x i8] c"ssl_check_pending: application data record is being processed\00", align 1
@.str.131 = private unnamed_addr constant [35 x i8] c"ssl_check_pending: nothing pending\00", align 1

; Function Attrs: nounwind uwtable
define hidden i32 @mbedtls_ssl_check_pending(ptr noundef %0) #0 {
  %2 = alloca i32, align 4
  %3 = alloca ptr, align 8
  store ptr %0, ptr %3, align 8, !tbaa !3
  %4 = load ptr, ptr %3, align 8, !tbaa !3
  %5 = getelementptr inbounds nuw %struct.mbedtls_ssl_context, ptr %4, i32 0, i32 42
  %6 = load i32, ptr %5, align 4, !tbaa !156
  %7 = icmp eq i32 %6, 1
  br i1 %7, label %8, label %10

8:                                                ; preds = %1
  %9 = load ptr, ptr %3, align 8, !tbaa !3
  call void (ptr, i32, ptr, i32, ptr, ...) @mbedtls_debug_print_msg(ptr noundef %9, i32 noundef 3, ptr noundef @.str, i32 noundef 5400, ptr noundef @.str.127)
  store i32 1, ptr %2, align 4
  br label %52

10:                                               ; preds = %1
  %11 = load ptr, ptr %3, align 8, !tbaa !3
  %12 = getelementptr inbounds nuw %struct.mbedtls_ssl_context, ptr %11, i32 0, i32 0
  %13 = load ptr, ptr %12, align 8, !tbaa !23
  %14 = getelementptr inbounds nuw %struct.mbedtls_ssl_config, ptr %13, i32 0, i32 3
  %15 = load i8, ptr %14, align 1, !tbaa !24
  %16 = zext i8 %15 to i32
  %17 = icmp eq i32 %16, 1
  br i1 %17, label %18, label %28

18:                                               ; preds = %10
  %19 = load ptr, ptr %3, align 8, !tbaa !3
  %20 = getelementptr inbounds nuw %struct.mbedtls_ssl_context, ptr %19, i32 0, i32 35
  %21 = load i64, ptr %20, align 8, !tbaa !80
  %22 = load ptr, ptr %3, align 8, !tbaa !3
  %23 = getelementptr inbounds nuw %struct.mbedtls_ssl_context, ptr %22, i32 0, i32 37
  %24 = load i64, ptr %23, align 8, !tbaa !79
  %25 = icmp ugt i64 %21, %24
  br i1 %25, label %26, label %28

26:                                               ; preds = %18
  %27 = load ptr, ptr %3, align 8, !tbaa !3
  call void (ptr, i32, ptr, i32, ptr, ...) @mbedtls_debug_print_msg(ptr noundef %27, i32 noundef 3, ptr noundef @.str, i32 noundef 5411, ptr noundef @.str.128)
  store i32 1, ptr %2, align 4
  br label %52

28:                                               ; preds = %18, %10
  %29 = load ptr, ptr %3, align 8, !tbaa !3
  %30 = getelementptr inbounds nuw %struct.mbedtls_ssl_context, ptr %29, i32 0, i32 40
  %31 = load i64, ptr %30, align 8, !tbaa !144
  %32 = icmp ugt i64 %31, 0
  br i1 %32, label %33, label %43

33:                                               ; preds = %28
  %34 = load ptr, ptr %3, align 8, !tbaa !3
  %35 = getelementptr inbounds nuw %struct.mbedtls_ssl_context, ptr %34, i32 0, i32 40
  %36 = load i64, ptr %35, align 8, !tbaa !144
  %37 = load ptr, ptr %3, align 8, !tbaa !3
  %38 = getelementptr inbounds nuw %struct.mbedtls_ssl_context, ptr %37, i32 0, i32 34
  %39 = load i64, ptr %38, align 8, !tbaa !143
  %40 = icmp ult i64 %36, %39
  br i1 %40, label %41, label %43

41:                                               ; preds = %33
  %42 = load ptr, ptr %3, align 8, !tbaa !3
  call void (ptr, i32, ptr, i32, ptr, ...) @mbedtls_debug_print_msg(ptr noundef %42, i32 noundef 3, ptr noundef @.str, i32 noundef 5422, ptr noundef @.str.129)
  store i32 1, ptr %2, align 4
  br label %52

43:                                               ; preds = %33, %28
  %44 = load ptr, ptr %3, align 8, !tbaa !3
  %45 = getelementptr inbounds nuw %struct.mbedtls_ssl_context, ptr %44, i32 0, i32 32
  %46 = load ptr, ptr %45, align 8, !tbaa !158
  %47 = icmp ne ptr %46, null
  br i1 %47, label %48, label %50

48:                                               ; preds = %43
  %49 = load ptr, ptr %3, align 8, !tbaa !3
  call void (ptr, i32, ptr, i32, ptr, ...) @mbedtls_debug_print_msg(ptr noundef %49, i32 noundef 3, ptr noundef @.str, i32 noundef 5430, ptr noundef @.str.130)
  store i32 1, ptr %2, align 4
  br label %52

50:                                               ; preds = %43
  %51 = load ptr, ptr %3, align 8, !tbaa !3
  call void (ptr, i32, ptr, i32, ptr, ...) @mbedtls_debug_print_msg(ptr noundef %51, i32 noundef 3, ptr noundef @.str, i32 noundef 5440, ptr noundef @.str.131)
  store i32 0, ptr %2, align 4
  br label %52

52:                                               ; preds = %50, %48, %41, %26, %8
  %53 = load i32, ptr %2, align 4
  ret i32 %53
}