; Function Attrs: nounwind uwtable
define hidden range(i32 0, 2) i32 @mbedtls_ssl_check_pending(ptr noundef %0) local_unnamed_addr #0 {
  %2 = getelementptr inbounds nuw i8, ptr %0, i64 316
  %3 = load i32, ptr %2, align 4, !tbaa !147
  %4 = icmp eq i32 %3, 1
  br i1 %4, label %5, label %6

5:                                                ; preds = %1
  tail call void (ptr, i32, ptr, i32, ptr, ...) @mbedtls_debug_print_msg(ptr noundef nonnull %0, i32 noundef 3, ptr noundef nonnull @.str, i32 noundef 5400, ptr noundef nonnull @.str.127) #19
  br label %31

6:                                                ; preds = %1
  %7 = load ptr, ptr %0, align 8, !tbaa !18
  %8 = getelementptr inbounds nuw i8, ptr %7, i64 9
  %9 = load i8, ptr %8, align 1, !tbaa !19
  %10 = icmp eq i8 %9, 1
  br i1 %10, label %11, label %18

11:                                               ; preds = %6
  %12 = getelementptr inbounds nuw i8, ptr %0, i64 264
  %13 = load i64, ptr %12, align 8, !tbaa !73
  %14 = getelementptr inbounds nuw i8, ptr %0, i64 280
  %15 = load i64, ptr %14, align 8, !tbaa !72
  %16 = icmp ugt i64 %13, %15
  br i1 %16, label %17, label %18

17:                                               ; preds = %11
  tail call void (ptr, i32, ptr, i32, ptr, ...) @mbedtls_debug_print_msg(ptr noundef nonnull %0, i32 noundef 3, ptr noundef nonnull @.str, i32 noundef 5411, ptr noundef nonnull @.str.128) #19
  br label %31

18:                                               ; preds = %11, %6
  %19 = getelementptr inbounds nuw i8, ptr %0, i64 304
  %20 = load i64, ptr %19, align 8, !tbaa !143
  %.not = icmp eq i64 %20, 0
  br i1 %.not, label %26, label %21

21:                                               ; preds = %18
  %22 = getelementptr inbounds nuw i8, ptr %0, i64 256
  %23 = load i64, ptr %22, align 8, !tbaa !142
  %24 = icmp ult i64 %20, %23
  br i1 %24, label %25, label %26

25:                                               ; preds = %21
  tail call void (ptr, i32, ptr, i32, ptr, ...) @mbedtls_debug_print_msg(ptr noundef nonnull %0, i32 noundef 3, ptr noundef nonnull @.str, i32 noundef 5422, ptr noundef nonnull @.str.129) #19
  br label %31

26:                                               ; preds = %21, %18
  %27 = getelementptr inbounds nuw i8, ptr %0, i64 240
  %28 = load ptr, ptr %27, align 8, !tbaa !148
  %.not14 = icmp eq ptr %28, null
  br i1 %.not14, label %30, label %29

29:                                               ; preds = %26
  tail call void (ptr, i32, ptr, i32, ptr, ...) @mbedtls_debug_print_msg(ptr noundef nonnull %0, i32 noundef 3, ptr noundef nonnull @.str, i32 noundef 5430, ptr noundef nonnull @.str.130) #19
  br label %31

30:                                               ; preds = %26
  tail call void (ptr, i32, ptr, i32, ptr, ...) @mbedtls_debug_print_msg(ptr noundef nonnull %0, i32 noundef 3, ptr noundef nonnull @.str, i32 noundef 5440, ptr noundef nonnull @.str.131) #19
  br label %31

31:                                               ; preds = %30, %29, %25, %17, %5
  %.0 = phi i32 [ 1, %5 ], [ 1, %17 ], [ 1, %25 ], [ 1, %29 ], [ 0, %30 ]
  ret i32 %.0
}